; ModuleID = '54/122.c'
source_filename = "54/122.c"
target datalayout = "e-m:e-p270:32:32-p271:32:32-p272:64:64-i64:64-f80:128-n8:16:32:64-S128"
target triple = "x86_64-pc-linux-gnu"

@.str = private unnamed_addr constant [5 x i8] c"%d%d\00", align 1
@.str.1 = private unnamed_addr constant [3 x i8] c"%d\00", align 1

; Function Attrs: noinline nounwind uwtable
define dso_local void @main() #0 {
  %1 = alloca i32, align 4
  %2 = alloca i32, align 4
  %3 = alloca [100 x i32], align 16
  %4 = alloca i32, align 4
  %5 = alloca i32, align 4
  %6 = alloca i32, align 4
  %7 = call i32 (i8*, ...) @__isoc99_scanf(i8* getelementptr inbounds ([5 x i8], [5 x i8]* @.str, i64 0, i64 0), i32* %1, i32* %2)
  %8 = getelementptr inbounds [100 x i32], [100 x i32]* %3, i64 0, i64 0
  store i32 0, i32* %8, align 16
  store i32 1, i32* %6, align 4
  br label %9

9:                                                ; preds = %61, %0
  %10 = getelementptr inbounds [100 x i32], [100 x i32]* %3, i64 0, i64 0
  %11 = load i32, i32* %10, align 16
  %12 = icmp eq i32 %11, 0
  br i1 %12, label %13, label %64

13:                                               ; preds = %9
  %14 = load i32, i32* %1, align 4
  %15 = sub nsw i32 %14, 1
  %16 = load i32, i32* %6, align 4
  %17 = mul nsw i32 %15, %16
  %18 = load i32, i32* %1, align 4
  %19 = sext i32 %18 to i64
  %20 = getelementptr inbounds [100 x i32], [100 x i32]* %3, i64 0, i64 %19
  store i32 %17, i32* %20, align 4
  store i32 0, i32* %5, align 4
  %21 = load i32, i32* %1, align 4
  store i32 %21, i32* %4, align 4
  br label %22

22:                                               ; preds = %57, %13
  %23 = load i32, i32* %4, align 4
  %24 = icmp sge i32 %23, 1
  br i1 %24, label %25, label %28

25:                                               ; preds = %22
  %26 = load i32, i32* %5, align 4
  %27 = icmp eq i32 %26, 0
  br label %28

28:                                               ; preds = %25, %22
  %29 = phi i1 [ false, %22 ], [ %27, %25 ]
  br i1 %29, label %30, label %60

30:                                               ; preds = %28
  %31 = load i32, i32* %4, align 4
  %32 = sext i32 %31 to i64
  %33 = getelementptr inbounds [100 x i32], [100 x i32]* %3, i64 0, i64 %32
  %34 = load i32, i32* %33, align 4
  %35 = load i32, i32* %1, align 4
  %36 = sub nsw i32 %35, 1
  %37 = srem i32 %34, %36
  %38 = icmp eq i32 %37, 0
  br i1 %38, label %39, label %55

39:                                               ; preds = %30
  %40 = load i32, i32* %4, align 4
  %41 = sext i32 %40 to i64
  %42 = getelementptr inbounds [100 x i32], [100 x i32]* %3, i64 0, i64 %41
  %43 = load i32, i32* %42, align 4
  %44 = load i32, i32* %1, align 4
  %45 = mul nsw i32 %43, %44
  %46 = load i32, i32* %1, align 4
  %47 = sub nsw i32 %46, 1
  %48 = sdiv i32 %45, %47
  %49 = load i32, i32* %2, align 4
  %50 = add nsw i32 %48, %49
  %51 = load i32, i32* %4, align 4
  %52 = sub nsw i32 %51, 1
  %53 = sext i32 %52 to i64
  %54 = getelementptr inbounds [100 x i32], [100 x i32]* %3, i64 0, i64 %53
  store i32 %50, i32* %54, align 4
  br label %56

55:                                               ; preds = %30
  store i32 1, i32* %5, align 4
  br label %56

56:                                               ; preds = %55, %39
  br label %57

57:                                               ; preds = %56
  %58 = load i32, i32* %4, align 4
  %59 = add nsw i32 %58, -1
  store i32 %59, i32* %4, align 4
  br label %22

60:                                               ; preds = %28
  br label %61

61:                                               ; preds = %60
  %62 = load i32, i32* %6, align 4
  %63 = add nsw i32 %62, 1
  store i32 %63, i32* %6, align 4
  br label %9

64:                                               ; preds = %9
  %65 = getelementptr inbounds [100 x i32], [100 x i32]* %3, i64 0, i64 0
  %66 = load i32, i32* %65, align 16
  %67 = call i32 (i8*, ...) @printf(i8* getelementptr inbounds ([3 x i8], [3 x i8]* @.str.1, i64 0, i64 0), i32 %66)
  ret void
}

declare dso_local i32 @__isoc99_scanf(i8*, ...) #1

declare dso_local i32 @printf(i8*, ...) #1


!llvm.module.flags = !{!0}
!llvm.ident = !{!1}

!0 = !{i32 1, !"wchar_size", i32 4}
!1 = !{!"clang version 10.0.0-4ubuntu1 "}
