; ModuleID = 'source-C-CXX/53/122.c'
source_filename = "source-C-CXX/53/122.c"
target datalayout = "e-m:e-p270:32:32-p271:32:32-p272:64:64-i64:64-f80:128-n8:16:32:64-S128"
target triple = "x86_64-pc-linux-gnu"

@.str = private unnamed_addr constant [5 x i8] c"%d%d\00", align 1
@.str.1 = private unnamed_addr constant [3 x i8] c"%d\00", align 1

; Function Attrs: nofree nounwind sspstrong uwtable
define dso_local void @main() local_unnamed_addr #0 {
  %1 = alloca i32, align 4
  %2 = alloca i32, align 4
  %3 = alloca [100 x i32], align 16
  %4 = bitcast i32* %1 to i8*
  call void @llvm.lifetime.start.p0i8(i64 4, i8* nonnull %4) #3
  %5 = bitcast i32* %2 to i8*
  call void @llvm.lifetime.start.p0i8(i64 4, i8* nonnull %5) #3
  %6 = bitcast [100 x i32]* %3 to i8*
  call void @llvm.lifetime.start.p0i8(i64 400, i8* nonnull %6) #3
  %7 = call i32 (i8*, ...) @__isoc99_scanf(i8* getelementptr inbounds ([5 x i8], [5 x i8]* @.str, i64 0, i64 0), i32* nonnull %1, i32* nonnull %2)
  %8 = getelementptr inbounds [100 x i32], [100 x i32]* %3, i64 0, i64 0
  store i32 0, i32* %8, align 16, !tbaa !5
  %9 = load i32, i32* %1, align 4, !tbaa !5
  %10 = add nsw i32 %9, -1
  %11 = sext i32 %9 to i64
  %12 = getelementptr inbounds [100 x i32], [100 x i32]* %3, i64 0, i64 %11
  %13 = load i32, i32* %2, align 4
  %14 = icmp sgt i32 %9, 0
  br i1 %14, label %15, label %38

15:                                               ; preds = %0, %34
  %16 = phi i32 [ %35, %34 ], [ 1, %0 ]
  %17 = mul nsw i32 %10, %16
  store i32 %17, i32* %12, align 4, !tbaa !5
  br label %18

18:                                               ; preds = %15, %25
  %19 = phi i32 [ %9, %15 ], [ %29, %25 ]
  %20 = zext i32 %19 to i64
  %21 = getelementptr inbounds [100 x i32], [100 x i32]* %3, i64 0, i64 %20
  %22 = load i32, i32* %21, align 4, !tbaa !5
  %23 = srem i32 %22, %10
  %24 = icmp eq i32 %23, 0
  br i1 %24, label %25, label %34

25:                                               ; preds = %18
  %26 = mul nsw i32 %22, %9
  %27 = sdiv i32 %26, %10
  %28 = add nsw i32 %13, %27
  %29 = add nsw i32 %19, -1
  %30 = zext i32 %29 to i64
  %31 = getelementptr inbounds [100 x i32], [100 x i32]* %3, i64 0, i64 %30
  store i32 %28, i32* %31, align 4, !tbaa !5
  %32 = icmp sgt i32 %19, 1
  %33 = and i1 %32, %24
  br i1 %33, label %18, label %34, !llvm.loop !9

34:                                               ; preds = %18, %25
  %35 = add nuw nsw i32 %16, 1
  %36 = load i32, i32* %8, align 16, !tbaa !5
  %37 = icmp eq i32 %36, 0
  br i1 %37, label %15, label %44, !llvm.loop !11

38:                                               ; preds = %0, %38
  %39 = phi i32 [ %41, %38 ], [ 1, %0 ]
  %40 = mul nsw i32 %10, %39
  store i32 %40, i32* %12, align 4, !tbaa !5
  %41 = add nuw nsw i32 %39, 1
  %42 = load i32, i32* %8, align 16, !tbaa !5
  %43 = icmp eq i32 %42, 0
  br i1 %43, label %38, label %44, !llvm.loop !11

44:                                               ; preds = %38, %34
  %45 = phi i32 [ %36, %34 ], [ %42, %38 ]
  %46 = call i32 (i8*, ...) @printf(i8* nonnull dereferenceable(1) getelementptr inbounds ([3 x i8], [3 x i8]* @.str.1, i64 0, i64 0), i32 %45)
  call void @llvm.lifetime.end.p0i8(i64 400, i8* nonnull %6) #3
  call void @llvm.lifetime.end.p0i8(i64 4, i8* nonnull %5) #3
  call void @llvm.lifetime.end.p0i8(i64 4, i8* nonnull %4) #3
  ret void
}

; Function Attrs: argmemonly mustprogress nofree nosync nounwind willreturn
declare void @llvm.lifetime.start.p0i8(i64 immarg, i8* nocapture) #1

; Function Attrs: nofree nounwind
declare noundef i32 @__isoc99_scanf(i8* nocapture noundef readonly, ...) local_unnamed_addr #2

; Function Attrs: nofree nounwind
declare noundef i32 @printf(i8* nocapture noundef readonly, ...) local_unnamed_addr #2

; Function Attrs: argmemonly mustprogress nofree nosync nounwind willreturn
declare void @llvm.lifetime.end.p0i8(i64 immarg, i8* nocapture) #1


!llvm.module.flags = !{!0, !1, !2, !3}
!llvm.ident = !{!4}

!0 = !{i32 1, !"wchar_size", i32 4}
!1 = !{i32 7, !"PIC Level", i32 2}
!2 = !{i32 7, !"PIE Level", i32 2}
!3 = !{i32 7, !"uwtable", i32 1}
!4 = !{!"clang version 13.0.0"}
!5 = !{!6, !6, i64 0}
!6 = !{!"int", !7, i64 0}
!7 = !{!"omnipotent char", !8, i64 0}
!8 = !{!"Simple C/C++ TBAA"}
!9 = distinct !{!9, !10}
!10 = !{!"llvm.loop.mustprogress"}
!11 = distinct !{!11, !10}
